; ModuleID = '16/624.c'
source_filename = "16/624.c"
target datalayout = "e-m:e-p270:32:32-p271:32:32-p272:64:64-i64:64-f80:128-n8:16:32:64-S128"
target triple = "x86_64-pc-linux-gnu"

@.str = private unnamed_addr constant [3 x i8] c"%d\00", align 1
@.str.1 = private unnamed_addr constant [9 x i8] c"%d%d%d%d\00", align 1
@.str.2 = private unnamed_addr constant [7 x i8] c"%d%d%d\00", align 1
@.str.3 = private unnamed_addr constant [5 x i8] c"%d%d\00", align 1

; Function Attrs: noinline nounwind uwtable
define dso_local i32 @main() #0 {
  %1 = alloca i32, align 4
  %2 = alloca i32, align 4
  %3 = alloca i32, align 4
  %4 = alloca i32, align 4
  %5 = alloca i32, align 4
  %6 = alloca i32, align 4
  store i32 0, i32* %1, align 4
  %7 = call i32 (i8*, ...) @__isoc99_scanf(i8* getelementptr inbounds ([3 x i8], [3 x i8]* @.str, i64 0, i64 0), i32* %2)
  %8 = load i32, i32* %2, align 4
  %9 = icmp sge i32 %8, 1000
  br i1 %9, label %10, label %33

10:                                               ; preds = %0
  %11 = load i32, i32* %2, align 4
  %12 = sdiv i32 %11, 1000
  store i32 %12, i32* %3, align 4
  %13 = load i32, i32* %2, align 4
  %14 = load i32, i32* %3, align 4
  %15 = mul nsw i32 1000, %14
  %16 = sub nsw i32 %13, %15
  %17 = sdiv i32 %16, 100
  store i32 %17, i32* %4, align 4
  %18 = load i32, i32* %2, align 4
  %19 = load i32, i32* %3, align 4
  %20 = mul nsw i32 1000, %19
  %21 = sub nsw i32 %18, %20
  %22 = load i32, i32* %4, align 4
  %23 = mul nsw i32 100, %22
  %24 = sub nsw i32 %21, %23
  %25 = sdiv i32 %24, 10
  store i32 %25, i32* %5, align 4
  %26 = load i32, i32* %2, align 4
  %27 = srem i32 %26, 10
  store i32 %27, i32* %6, align 4
  %28 = load i32, i32* %6, align 4
  %29 = load i32, i32* %5, align 4
  %30 = load i32, i32* %4, align 4
  %31 = load i32, i32* %3, align 4
  %32 = call i32 (i8*, ...) @printf(i8* getelementptr inbounds ([9 x i8], [9 x i8]* @.str.1, i64 0, i64 0), i32 %28, i32 %29, i32 %30, i32 %31)
  br label %66

33:                                               ; preds = %0
  %34 = load i32, i32* %2, align 4
  %35 = icmp sge i32 %34, 100
  br i1 %35, label %36, label %50

36:                                               ; preds = %33
  %37 = load i32, i32* %2, align 4
  %38 = sdiv i32 %37, 100
  store i32 %38, i32* %3, align 4
  %39 = load i32, i32* %2, align 4
  %40 = load i32, i32* %3, align 4
  %41 = mul nsw i32 %40, 100
  %42 = sub nsw i32 %39, %41
  %43 = sdiv i32 %42, 10
  store i32 %43, i32* %4, align 4
  %44 = load i32, i32* %2, align 4
  %45 = srem i32 %44, 10
  store i32 %45, i32* %5, align 4
  %46 = load i32, i32* %5, align 4
  %47 = load i32, i32* %4, align 4
  %48 = load i32, i32* %3, align 4
  %49 = call i32 (i8*, ...) @printf(i8* getelementptr inbounds ([7 x i8], [7 x i8]* @.str.2, i64 0, i64 0), i32 %46, i32 %47, i32 %48)
  br label %65

50:                                               ; preds = %33
  %51 = load i32, i32* %2, align 4
  %52 = icmp sge i32 %51, 10
  br i1 %52, label %53, label %61

53:                                               ; preds = %50
  %54 = load i32, i32* %2, align 4
  %55 = sdiv i32 %54, 10
  store i32 %55, i32* %3, align 4
  %56 = load i32, i32* %2, align 4
  %57 = srem i32 %56, 10
  store i32 %57, i32* %4, align 4
  %58 = load i32, i32* %4, align 4
  %59 = load i32, i32* %3, align 4
  %60 = call i32 (i8*, ...) @printf(i8* getelementptr inbounds ([5 x i8], [5 x i8]* @.str.3, i64 0, i64 0), i32 %58, i32 %59)
  br label %64

61:                                               ; preds = %50
  %62 = load i32, i32* %2, align 4
  %63 = call i32 (i8*, ...) @printf(i8* getelementptr inbounds ([3 x i8], [3 x i8]* @.str, i64 0, i64 0), i32 %62)
  br label %64

64:                                               ; preds = %61, %53
  br label %65

65:                                               ; preds = %64, %36
  br label %66

66:                                               ; preds = %65, %10
  ret i32 0
}

declare dso_local i32 @__isoc99_scanf(i8*, ...) #1

declare dso_local i32 @printf(i8*, ...) #1


!llvm.module.flags = !{!0}
!llvm.ident = !{!1}

!0 = !{i32 1, !"wchar_size", i32 4}
!1 = !{!"clang version 10.0.0-4ubuntu1 "}
